target datalayout = "e-m:e-p270:32:32-p271:32:32-p272:64:64-i64:64-i128:128-f80:128-n8:16:32:64-S128"
target triple = "x86_64-pc-linux-gnu"

%struct.jpeg_compress_struct = type { ptr, ptr, ptr, ptr, i32, i32, ptr, i32, i32, i32, i32, double, i32, i32, i32, ptr, [4 x ptr], [4 x ptr], [4 x ptr], [16 x i8], [16 x i8], [16 x i8], i32, ptr, i32, i32, i32, i32, i32, i32, i32, i32, i32, i8, i8, i8, i16, i16, i32, i32, i32, i32, i32, i32, i32, [4 x ptr], i32, i32, i32, [10 x i32], i32, i32, i32, i32, ptr, ptr, ptr, ptr, ptr, ptr, ptr, ptr, ptr, ptr, i32 }
%struct.my_comp_master = type { %struct.jpeg_comp_master, i32, i32, i32, i32, ptr }
%struct.jpeg_comp_master = type { ptr, ptr, ptr, i32, i32, i32 }
%struct.jpeg_entropy_encoder = type { ptr, ptr, ptr, ptr }

; Function Attrs: nounwind uwtable
define internal void @finish_pass_master(ptr noundef %0) #0 {
  %2 = alloca ptr, align 8
  %3 = alloca ptr, align 8
  store ptr %0, ptr %2, align 8, !tbaa !3
  call void @llvm.lifetime.start.p0(i64 8, ptr %3) #4
  %4 = load ptr, ptr %2, align 8, !tbaa !3
  %5 = getelementptr inbounds nuw %struct.jpeg_compress_struct, ptr %4, i32 0, i32 54
  %6 = load ptr, ptr %5, align 8, !tbaa !10
  store ptr %6, ptr %3, align 8, !tbaa !27
  %7 = load ptr, ptr %2, align 8, !tbaa !3
  %8 = getelementptr inbounds nuw %struct.jpeg_compress_struct, ptr %7, i32 0, i32 62
  %9 = load ptr, ptr %8, align 8, !tbaa !69
  %10 = getelementptr inbounds nuw %struct.jpeg_entropy_encoder, ptr %9, i32 0, i32 3
  %11 = load ptr, ptr %10, align 8, !tbaa !96
  %12 = load ptr, ptr %2, align 8, !tbaa !3
  call void %11(ptr noundef %12)
  %13 = load ptr, ptr %3, align 8, !tbaa !27
  %14 = getelementptr inbounds nuw %struct.my_comp_master, ptr %13, i32 0, i32 1
  %15 = load i32, ptr %14, align 8, !tbaa !52
  switch i32 %15, label %45 [
    i32 0, label %16
    i32 1, label %29
    i32 2, label %32
  ]

16:                                               ; preds = %1
  %17 = load ptr, ptr %3, align 8, !tbaa !27
  %18 = getelementptr inbounds nuw %struct.my_comp_master, ptr %17, i32 0, i32 1
  store i32 2, ptr %18, align 8, !tbaa !52
  %19 = load ptr, ptr %2, align 8, !tbaa !3
  %20 = getelementptr inbounds nuw %struct.jpeg_compress_struct, ptr %19, i32 0, i32 26
  %21 = load i32, ptr %20, align 8, !tbaa !49
  %22 = icmp ne i32 %21, 0
  br i1 %22, label %28, label %23

23:                                               ; preds = %16
  %24 = load ptr, ptr %3, align 8, !tbaa !27
  %25 = getelementptr inbounds nuw %struct.my_comp_master, ptr %24, i32 0, i32 4
  %26 = load i32, ptr %25, align 4, !tbaa !53
  %27 = add nsw i32 %26, 1
  store i32 %27, ptr %25, align 4, !tbaa !53
  br label %28

28:                                               ; preds = %23, %16
  br label %45

29:                                               ; preds = %1
  %30 = load ptr, ptr %3, align 8, !tbaa !27
  %31 = getelementptr inbounds nuw %struct.my_comp_master, ptr %30, i32 0, i32 1
  store i32 2, ptr %31, align 8, !tbaa !52
  br label %45

32:                                               ; preds = %1
  %33 = load ptr, ptr %2, align 8, !tbaa !3
  %34 = getelementptr inbounds nuw %struct.jpeg_compress_struct, ptr %33, i32 0, i32 26
  %35 = load i32, ptr %34, align 8, !tbaa !49
  %36 = icmp ne i32 %35, 0
  br i1 %36, label %37, label %40

37:                                               ; preds = %32
  %38 = load ptr, ptr %3, align 8, !tbaa !27
  %39 = getelementptr inbounds nuw %struct.my_comp_master, ptr %38, i32 0, i32 1
  store i32 1, ptr %39, align 8, !tbaa !52
  br label %40

40:                                               ; preds = %37, %32
  %41 = load ptr, ptr %3, align 8, !tbaa !27
  %42 = getelementptr inbounds nuw %struct.my_comp_master, ptr %41, i32 0, i32 4
  %43 = load i32, ptr %42, align 4, !tbaa !53
  %44 = add nsw i32 %43, 1
  store i32 %44, ptr %42, align 4, !tbaa !53
  br label %45

45:                                               ; preds = %1, %40, %29, %28
  %46 = load ptr, ptr %3, align 8, !tbaa !27
  %47 = getelementptr inbounds nuw %struct.my_comp_master, ptr %46, i32 0, i32 2
  %48 = load i32, ptr %47, align 4, !tbaa !54
  %49 = add nsw i32 %48, 1
  store i32 %49, ptr %47, align 4, !tbaa !54
  call void @llvm.lifetime.end.p0(i64 8, ptr %3) #4
  ret void
}