; Function Attrs: nounwind uwtable
define internal void @finish_pass_master(ptr noundef %0) #0 {
  %2 = getelementptr inbounds nuw i8, ptr %0, i64 432
  %3 = load ptr, ptr %2, align 8, !tbaa !3
  %4 = getelementptr inbounds nuw i8, ptr %0, i64 496
  %5 = load ptr, ptr %4, align 8, !tbaa !110
  %6 = getelementptr inbounds nuw i8, ptr %5, i64 24
  %7 = load ptr, ptr %6, align 8, !tbaa !129
  tail call void %7(ptr noundef %0) #6
  %8 = getelementptr inbounds nuw i8, ptr %3, i64 40
  %9 = load i32, ptr %8, align 8, !tbaa !86
  switch i32 %9, label %26 [
    i32 0, label %10
    i32 1, label %17
    i32 2, label %18
  ]

10:                                               ; preds = %1
  store i32 2, ptr %8, align 8, !tbaa !86
  %11 = getelementptr inbounds nuw i8, ptr %0, i64 264
  %12 = load i32, ptr %11, align 8, !tbaa !82
  %.not12 = icmp eq i32 %12, 0
  br i1 %.not12, label %13, label %26

13:                                               ; preds = %10
  %14 = getelementptr inbounds nuw i8, ptr %3, i64 52
  %15 = load i32, ptr %14, align 4, !tbaa !87
  %16 = add nsw i32 %15, 1
  store i32 %16, ptr %14, align 4, !tbaa !87
  br label %26

17:                                               ; preds = %1
  store i32 2, ptr %8, align 8, !tbaa !86
  br label %26

18:                                               ; preds = %1
  %19 = getelementptr inbounds nuw i8, ptr %0, i64 264
  %20 = load i32, ptr %19, align 8, !tbaa !82
  %.not = icmp eq i32 %20, 0
  br i1 %.not, label %22, label %21

21:                                               ; preds = %18
  store i32 1, ptr %8, align 8, !tbaa !86
  br label %22

22:                                               ; preds = %21, %18
  %23 = getelementptr inbounds nuw i8, ptr %3, i64 52
  %24 = load i32, ptr %23, align 4, !tbaa !87
  %25 = add nsw i32 %24, 1
  store i32 %25, ptr %23, align 4, !tbaa !87
  br label %26

26:                                               ; preds = %10, %13, %22, %17, %1
  %27 = getelementptr inbounds nuw i8, ptr %3, i64 44
  %28 = load i32, ptr %27, align 4, !tbaa !88
  %29 = add nsw i32 %28, 1
  store i32 %29, ptr %27, align 4, !tbaa !88
  ret void
}